; Function Attrs: mustprogress uwtable
define hidden void @_ZN10sls_engine6mk_addEjRK3mpzRS0_S3_(ptr noundef nonnull align 8 dereferenceable(1496) %0, i32 noundef %1, ptr noundef nonnull align 8 dereferenceable(16) %2, ptr noundef nonnull align 8 dereferenceable(16) %3, ptr noundef nonnull align 8 dereferenceable(16) %4) local_unnamed_addr #3 align 2 {
  %6 = alloca %class.mpz, align 8
  %7 = alloca %class.mpz, align 8
  %8 = alloca %class.mpz, align 8
  call void @llvm.lifetime.start.p0(i64 16, ptr nonnull %6) #25
  store i32 0, ptr %6, align 8, !tbaa !32
  %9 = getelementptr inbounds nuw i8, ptr %6, i64 4
  store i8 0, ptr %9, align 4
  %10 = getelementptr inbounds nuw i8, ptr %6, i64 8
  store ptr null, ptr %10, align 8, !tbaa !38
  call void @llvm.lifetime.start.p0(i64 16, ptr nonnull %7) #25
  store i32 0, ptr %7, align 8, !tbaa !32
  %11 = getelementptr inbounds nuw i8, ptr %7, i64 4
  store i8 0, ptr %11, align 4
  %12 = getelementptr inbounds nuw i8, ptr %7, i64 8
  store ptr null, ptr %12, align 8, !tbaa !38
  call void @llvm.lifetime.start.p0(i64 16, ptr nonnull %8) #25
  store i32 0, ptr %8, align 8, !tbaa !32
  %13 = getelementptr inbounds nuw i8, ptr %8, i64 4
  store i8 0, ptr %13, align 4
  %14 = getelementptr inbounds nuw i8, ptr %8, i64 8
  store ptr null, ptr %14, align 8, !tbaa !38
  %15 = getelementptr inbounds nuw i8, ptr %0, i64 64
  call void @_ZN11mpz_managerILb0EE3addERK3mpzS3_RS1_(ptr noundef nonnull align 8 dereferenceable(600) %15, ptr noundef nonnull align 8 dereferenceable(16) %2, ptr noundef nonnull align 8 dereferenceable(16) %3, ptr noundef nonnull align 8 dereferenceable(16) %6)
  %16 = getelementptr inbounds nuw i8, ptr %0, i64 664
  %17 = call noundef nonnull align 8 dereferenceable(16) ptr @_ZN6powersclEj(ptr noundef nonnull align 8 dereferenceable(32) %16, i32 noundef %1)
  %18 = getelementptr inbounds nuw i8, ptr %17, i64 4
  %19 = load i8, ptr %18, align 4
  %20 = and i8 %19, 1
  %21 = icmp eq i8 %20, 0
  br i1 %21, label %22, label %24

22:                                               ; preds = %5
  %23 = load i32, ptr %17, align 8, !tbaa !32
  store i32 %23, ptr %7, align 8, !tbaa !32
  store i8 0, ptr %11, align 4
  br label %_ZN11mpz_managerILb0EE3setER3mpzRKS1_.exit

24:                                               ; preds = %5
  call void @_ZN11mpz_managerILb0EE7big_setER3mpzRKS1_(ptr noundef nonnull align 8 dereferenceable(600) %15, ptr noundef nonnull align 8 dereferenceable(16) %7, ptr noundef nonnull align 8 dereferenceable(16) %17)
  br label %_ZN11mpz_managerILb0EE3setER3mpzRKS1_.exit

_ZN11mpz_managerILb0EE3setER3mpzRKS1_.exit:       ; preds = %22, %24
  call void @_ZN11mpz_managerILb0EE11bitwise_notEjRK3mpzRS1_(ptr noundef nonnull align 8 dereferenceable(600) %15, i32 noundef %1, ptr noundef nonnull align 8 dereferenceable(16) %7, ptr noundef nonnull align 8 dereferenceable(16) %8)
  call void @_ZN11mpz_managerILb0EE11bitwise_andERK3mpzS3_RS1_(ptr noundef nonnull align 8 dereferenceable(600) %15, ptr noundef nonnull align 8 dereferenceable(16) %6, ptr noundef nonnull align 8 dereferenceable(16) %8, ptr noundef nonnull align 8 dereferenceable(16) %4)
  call void @_ZN11mpz_managerILb0EE3delEPS0_R3mpz(ptr noundef nonnull align 8 dereferenceable(600) %15, ptr noundef nonnull align 8 dereferenceable(16) %6)
  call void @_ZN11mpz_managerILb0EE3delEPS0_R3mpz(ptr noundef nonnull align 8 dereferenceable(600) %15, ptr noundef nonnull align 8 dereferenceable(16) %7)
  call void @_ZN11mpz_managerILb0EE3delEPS0_R3mpz(ptr noundef nonnull align 8 dereferenceable(600) %15, ptr noundef nonnull align 8 dereferenceable(16) %8)
  call void @llvm.lifetime.end.p0(i64 16, ptr nonnull %8) #25
  call void @llvm.lifetime.end.p0(i64 16, ptr nonnull %7) #25
  call void @llvm.lifetime.end.p0(i64 16, ptr nonnull %6) #25
  ret void
}